target datalayout = "e-m:e-p270:32:32-p271:32:32-p272:64:64-i64:64-i128:128-f80:128-n8:16:32:64-S128"
target triple = "x86_64-pc-linux-gnu"

%struct.Agobj_s = type { %struct.Agtag_s, ptr }
%struct.Agtag_s = type { i32, i64 }
%struct.Agrec_s = type { ptr, ptr }
%struct.boxf = type { %struct.pointf_s, %struct.pointf_s }
%struct.pointf_s = type { double, double }
%struct.Agnodeinfo_t = type { %struct.Agrec_s, ptr, ptr, %struct.pointf_s, double, double, %struct.boxf, double, double, double, double, double, ptr, ptr, ptr, i8, i8, i8, i8, i32, i32, i32, ptr, double, i8, i8, ptr, ptr, i8, i64, i8, i8, i8, ptr, ptr, %struct.elist, %struct.elist, %struct.elist, %struct.elist, %struct.elist, ptr, i32, ptr, i32, i32, double, %struct.elist, %struct.elist, %struct.elist, %struct.elist, ptr, i32, i32, i32, [1 x double] }
%struct.elist = type { ptr, i64 }
%struct.Agedgeinfo_t = type { %struct.Agrec_s, ptr, %struct.port, %struct.port, ptr, ptr, ptr, ptr, i8, i8, i8, i8, i8, ptr, ptr, double, double, %struct.Ppoly_t, i8, i8, i16, i32, i32, i32, i16, i32, ptr }
%struct.port = type { %struct.pointf_s, double, ptr, i8, i8, i8, i8, i8, i8, ptr }
%struct.Ppoly_t = type { ptr, i64 }

@.str.18 = private unnamed_addr constant [8 x i8] c"compact\00", align 1
@.str.20 = private unnamed_addr constant [5 x i8] c"\7Ftop\00", align 1
@.str.21 = private unnamed_addr constant [5 x i8] c"\7Fbot\00", align 1

; Function Attrs: nounwind uwtable
define internal void @merge(ptr noundef %0, i32 noundef %1, i32 noundef %2) #0 {
  %4 = alloca ptr, align 8
  %5 = alloca i32, align 4
  %6 = alloca i32, align 4
  store ptr %0, ptr %4, align 8, !tbaa !60
  store i32 %1, ptr %5, align 4, !tbaa !45
  store i32 %2, ptr %6, align 4, !tbaa !45
  %7 = load ptr, ptr %4, align 8, !tbaa !60
  %8 = getelementptr inbounds nuw %struct.Agobj_s, ptr %7, i32 0, i32 1
  %9 = load ptr, ptr %8, align 8, !tbaa !10
  %10 = getelementptr inbounds nuw %struct.Agedgeinfo_t, ptr %9, i32 0, i32 25
  %11 = load i32, ptr %10, align 4, !tbaa !61
  %12 = load i32, ptr %5, align 4, !tbaa !45
  %13 = icmp sgt i32 %11, %12
  br i1 %13, label %14, label %20

14:                                               ; preds = %3
  %15 = load ptr, ptr %4, align 8, !tbaa !60
  %16 = getelementptr inbounds nuw %struct.Agobj_s, ptr %15, i32 0, i32 1
  %17 = load ptr, ptr %16, align 8, !tbaa !10
  %18 = getelementptr inbounds nuw %struct.Agedgeinfo_t, ptr %17, i32 0, i32 25
  %19 = load i32, ptr %18, align 4, !tbaa !61
  br label %22

20:                                               ; preds = %3
  %21 = load i32, ptr %5, align 4, !tbaa !45
  br label %22

22:                                               ; preds = %20, %14
  %23 = phi i32 [ %19, %14 ], [ %21, %20 ]
  %24 = load ptr, ptr %4, align 8, !tbaa !60
  %25 = getelementptr inbounds nuw %struct.Agobj_s, ptr %24, i32 0, i32 1
  %26 = load ptr, ptr %25, align 8, !tbaa !10
  %27 = getelementptr inbounds nuw %struct.Agedgeinfo_t, ptr %26, i32 0, i32 25
  store i32 %23, ptr %27, align 4, !tbaa !61
  %28 = load i32, ptr %6, align 4, !tbaa !45
  %29 = load ptr, ptr %4, align 8, !tbaa !60
  %30 = getelementptr inbounds nuw %struct.Agobj_s, ptr %29, i32 0, i32 1
  %31 = load ptr, ptr %30, align 8, !tbaa !10
  %32 = getelementptr inbounds nuw %struct.Agedgeinfo_t, ptr %31, i32 0, i32 21
  %33 = load i32, ptr %32, align 4, !tbaa !82
  %34 = add nsw i32 %33, %28
  store i32 %34, ptr %32, align 4, !tbaa !82
  ret void
}

; Function Attrs: nounwind uwtable
define internal zeroext i1 @is_a_strong_cluster(ptr noundef %0) #0 {
  %2 = alloca ptr, align 8
  %3 = alloca ptr, align 8
  store ptr %0, ptr %2, align 8, !tbaa !3
  call void @llvm.lifetime.start.p0(i64 8, ptr %3) #13
  %4 = load ptr, ptr %2, align 8, !tbaa !3
  %5 = call ptr @agget(ptr noundef %4, ptr noundef @.str.18)
  store ptr %5, ptr %3, align 8, !tbaa !46
  %6 = load ptr, ptr %3, align 8, !tbaa !46
  %7 = call zeroext i1 @mapbool(ptr noundef %6)
  call void @llvm.lifetime.end.p0(i64 8, ptr %3) #13
  ret i1 %7
}

; Function Attrs: nounwind uwtable
define internal void @compile_clusters(ptr noundef %0, ptr noundef %1, ptr noundef %2, ptr noundef %3) #0 {
  %5 = alloca ptr, align 8
  %6 = alloca ptr, align 8
  %7 = alloca ptr, align 8
  %8 = alloca ptr, align 8
  %9 = alloca ptr, align 8
  %10 = alloca ptr, align 8
  %11 = alloca ptr, align 8
  %12 = alloca ptr, align 8
  store ptr %0, ptr %5, align 8, !tbaa !3
  store ptr %1, ptr %6, align 8, !tbaa !3
  store ptr %2, ptr %7, align 8, !tbaa !8
  store ptr %3, ptr %8, align 8, !tbaa !8
  call void @llvm.lifetime.start.p0(i64 8, ptr %9) #13
  call void @llvm.lifetime.start.p0(i64 8, ptr %10) #13
  call void @llvm.lifetime.start.p0(i64 8, ptr %11) #13
  call void @llvm.lifetime.start.p0(i64 8, ptr %12) #13
  %13 = load ptr, ptr %5, align 8, !tbaa !3
  %14 = call zeroext i1 @is_a_cluster(ptr noundef %13)
  br i1 %14, label %15, label %86

15:                                               ; preds = %4
  %16 = load ptr, ptr %5, align 8, !tbaa !3
  %17 = call zeroext i1 @is_a_strong_cluster(ptr noundef %16)
  br i1 %17, label %18, label %86

18:                                               ; preds = %15
  %19 = load ptr, ptr %5, align 8, !tbaa !3
  %20 = call ptr @agfstnode(ptr noundef %19)
  store ptr %20, ptr %9, align 8, !tbaa !8
  br label %21

21:                                               ; preds = %69, %18
  %22 = load ptr, ptr %9, align 8, !tbaa !8
  %23 = icmp ne ptr %22, null
  br i1 %23, label %24, label %73

24:                                               ; preds = %21
  %25 = load ptr, ptr %5, align 8, !tbaa !3
  %26 = load ptr, ptr %9, align 8, !tbaa !8
  %27 = call ptr @agfstin(ptr noundef %25, ptr noundef %26)
  %28 = icmp eq ptr %27, null
  br i1 %28, label %29, label %46

29:                                               ; preds = %24
  %30 = load ptr, ptr %9, align 8, !tbaa !8
  %31 = call ptr @find(ptr noundef %30)
  %32 = getelementptr inbounds nuw %struct.Agobj_s, ptr %31, i32 0, i32 1
  %33 = load ptr, ptr %32, align 8, !tbaa !10
  %34 = getelementptr inbounds nuw %struct.Agnodeinfo_t, ptr %33, i32 0, i32 26
  %35 = load ptr, ptr %34, align 8, !tbaa !127
  store ptr %35, ptr %10, align 8, !tbaa !8
  %36 = load ptr, ptr %7, align 8, !tbaa !8
  %37 = icmp ne ptr %36, null
  br i1 %37, label %41, label %38

38:                                               ; preds = %29
  %39 = load ptr, ptr %6, align 8, !tbaa !3
  %40 = call ptr @makeXnode(ptr noundef %39, ptr noundef @.str.20)
  store ptr %40, ptr %7, align 8, !tbaa !8
  br label %41

41:                                               ; preds = %38, %29
  %42 = load ptr, ptr %6, align 8, !tbaa !3
  %43 = load ptr, ptr %7, align 8, !tbaa !8
  %44 = load ptr, ptr %10, align 8, !tbaa !8
  %45 = call ptr @agedge(ptr noundef %42, ptr noundef %43, ptr noundef %44, ptr noundef null, i32 noundef 1)
  br label %46

46:                                               ; preds = %41, %24
  %47 = load ptr, ptr %5, align 8, !tbaa !3
  %48 = load ptr, ptr %9, align 8, !tbaa !8
  %49 = call ptr @agfstout(ptr noundef %47, ptr noundef %48)
  %50 = icmp eq ptr %49, null
  br i1 %50, label %51, label %68

51:                                               ; preds = %46
  %52 = load ptr, ptr %9, align 8, !tbaa !8
  %53 = call ptr @find(ptr noundef %52)
  %54 = getelementptr inbounds nuw %struct.Agobj_s, ptr %53, i32 0, i32 1
  %55 = load ptr, ptr %54, align 8, !tbaa !10
  %56 = getelementptr inbounds nuw %struct.Agnodeinfo_t, ptr %55, i32 0, i32 26
  %57 = load ptr, ptr %56, align 8, !tbaa !127
  store ptr %57, ptr %10, align 8, !tbaa !8
  %58 = load ptr, ptr %8, align 8, !tbaa !8
  %59 = icmp ne ptr %58, null
  br i1 %59, label %63, label %60

60:                                               ; preds = %51
  %61 = load ptr, ptr %6, align 8, !tbaa !3
  %62 = call ptr @makeXnode(ptr noundef %61, ptr noundef @.str.21)
  store ptr %62, ptr %8, align 8, !tbaa !8
  br label %63

63:                                               ; preds = %60, %51
  %64 = load ptr, ptr %6, align 8, !tbaa !3
  %65 = load ptr, ptr %10, align 8, !tbaa !8
  %66 = load ptr, ptr %8, align 8, !tbaa !8
  %67 = call ptr @agedge(ptr noundef %64, ptr noundef %65, ptr noundef %66, ptr noundef null, i32 noundef 1)
  br label %68

68:                                               ; preds = %63, %46
  br label %69

69:                                               ; preds = %68
  %70 = load ptr, ptr %5, align 8, !tbaa !3
  %71 = load ptr, ptr %9, align 8, !tbaa !8
  %72 = call ptr @agnxtnode(ptr noundef %70, ptr noundef %71)
  store ptr %72, ptr %9, align 8, !tbaa !8
  br label %21, !llvm.loop !132

73:                                               ; preds = %21
  %74 = load ptr, ptr %7, align 8, !tbaa !8
  %75 = icmp ne ptr %74, null
  br i1 %75, label %76, label %85

76:                                               ; preds = %73
  %77 = load ptr, ptr %8, align 8, !tbaa !8
  %78 = icmp ne ptr %77, null
  br i1 %78, label %79, label %85

79:                                               ; preds = %76
  %80 = load ptr, ptr %6, align 8, !tbaa !3
  %81 = load ptr, ptr %7, align 8, !tbaa !8
  %82 = load ptr, ptr %8, align 8, !tbaa !8
  %83 = call ptr @agedge(ptr noundef %80, ptr noundef %81, ptr noundef %82, ptr noundef null, i32 noundef 1)
  store ptr %83, ptr %11, align 8, !tbaa !60
  %84 = load ptr, ptr %11, align 8, !tbaa !60
  call void @merge(ptr noundef %84, i32 noundef 0, i32 noundef 1000)
  br label %85

85:                                               ; preds = %79, %76, %73
  br label %86

86:                                               ; preds = %85, %15, %4
  %87 = load ptr, ptr %5, align 8, !tbaa !3
  %88 = call ptr @agfstsubg(ptr noundef %87)
  store ptr %88, ptr %12, align 8, !tbaa !3
  br label %89

89:                                               ; preds = %97, %86
  %90 = load ptr, ptr %12, align 8, !tbaa !3
  %91 = icmp ne ptr %90, null
  br i1 %91, label %92, label %100

92:                                               ; preds = %89
  %93 = load ptr, ptr %12, align 8, !tbaa !3
  %94 = load ptr, ptr %6, align 8, !tbaa !3
  %95 = load ptr, ptr %7, align 8, !tbaa !8
  %96 = load ptr, ptr %8, align 8, !tbaa !8
  call void @compile_clusters(ptr noundef %93, ptr noundef %94, ptr noundef %95, ptr noundef %96)
  br label %97

97:                                               ; preds = %92
  %98 = load ptr, ptr %12, align 8, !tbaa !3
  %99 = call ptr @agnxtsubg(ptr noundef %98)
  store ptr %99, ptr %12, align 8, !tbaa !3
  br label %89, !llvm.loop !133

100:                                              ; preds = %89
  call void @llvm.lifetime.end.p0(i64 8, ptr %12) #13
  call void @llvm.lifetime.end.p0(i64 8, ptr %11) #13
  call void @llvm.lifetime.end.p0(i64 8, ptr %10) #13
  call void @llvm.lifetime.end.p0(i64 8, ptr %9) #13
  ret void
}