; Function Attrs: nounwind uwtable
define internal fastcc void @compile_clusters(ptr noundef %0, ptr noundef %1, ptr noundef %2, ptr noundef %3) unnamed_addr #0 {
  %5 = tail call zeroext i1 @is_a_cluster(ptr noundef %0) #15
  br i1 %5, label %6, label %48

6:                                                ; preds = %4
  %7 = tail call ptr @agget(ptr noundef %0, ptr noundef nonnull @.str.18) #15
  %8 = tail call zeroext i1 @mapbool(ptr noundef %7) #15
  br i1 %8, label %9, label %48

9:                                                ; preds = %6
  %10 = tail call ptr @agfstnode(ptr noundef %0) #15
  %.not45 = icmp eq ptr %10, null
  br i1 %.not45, label %._crit_edge, label %.lr.ph

.lr.ph:                                           ; preds = %9, %36
  %.148 = phi ptr [ %.2, %36 ], [ %2, %9 ]
  %.03747 = phi ptr [ %37, %36 ], [ %10, %9 ]
  %.13946 = phi ptr [ %.341, %36 ], [ %3, %9 ]
  %11 = tail call ptr @agfstin(ptr noundef %0, ptr noundef nonnull %.03747) #15
  %12 = icmp eq ptr %11, null
  br i1 %12, label %13, label %23

13:                                               ; preds = %.lr.ph
  %14 = tail call fastcc ptr @find(ptr noundef nonnull %.03747)
  %15 = getelementptr inbounds nuw i8, ptr %14, i64 16
  %16 = load ptr, ptr %15, align 8, !tbaa !3
  %17 = getelementptr inbounds nuw i8, ptr %16, i64 200
  %18 = load ptr, ptr %17, align 8, !tbaa !60
  %.not43 = icmp eq ptr %.148, null
  br i1 %.not43, label %19, label %21

19:                                               ; preds = %13
  %20 = tail call fastcc ptr @makeXnode(ptr noundef %1, ptr noundef nonnull @.str.20)
  br label %21

21:                                               ; preds = %19, %13
  %.3 = phi ptr [ %.148, %13 ], [ %20, %19 ]
  %22 = tail call ptr @agedge(ptr noundef %1, ptr noundef %.3, ptr noundef %18, ptr noundef null, i32 noundef 1) #15
  br label %23

23:                                               ; preds = %21, %.lr.ph
  %.2 = phi ptr [ %.3, %21 ], [ %.148, %.lr.ph ]
  %24 = tail call ptr @agfstout(ptr noundef %0, ptr noundef nonnull %.03747) #15
  %25 = icmp eq ptr %24, null
  br i1 %25, label %26, label %36

26:                                               ; preds = %23
  %27 = tail call fastcc ptr @find(ptr noundef nonnull %.03747)
  %28 = getelementptr inbounds nuw i8, ptr %27, i64 16
  %29 = load ptr, ptr %28, align 8, !tbaa !3
  %30 = getelementptr inbounds nuw i8, ptr %29, i64 200
  %31 = load ptr, ptr %30, align 8, !tbaa !60
  %.not44 = icmp eq ptr %.13946, null
  br i1 %.not44, label %32, label %34

32:                                               ; preds = %26
  %33 = tail call fastcc ptr @makeXnode(ptr noundef %1, ptr noundef nonnull @.str.21)
  br label %34

34:                                               ; preds = %32, %26
  %.240 = phi ptr [ %.13946, %26 ], [ %33, %32 ]
  %35 = tail call ptr @agedge(ptr noundef %1, ptr noundef %31, ptr noundef %.240, ptr noundef null, i32 noundef 1) #15
  br label %36

36:                                               ; preds = %23, %34
  %.341 = phi ptr [ %.240, %34 ], [ %.13946, %23 ]
  %37 = tail call ptr @agnxtnode(ptr noundef %0, ptr noundef nonnull %.03747) #15
  %.not = icmp eq ptr %37, null
  br i1 %.not, label %._crit_edge, label %.lr.ph, !llvm.loop !143

._crit_edge:                                      ; preds = %36, %9
  %.139.lcssa = phi ptr [ %3, %9 ], [ %.341, %36 ]
  %.1.lcssa = phi ptr [ %2, %9 ], [ %.2, %36 ]
  %38 = icmp ne ptr %.1.lcssa, null
  %39 = icmp ne ptr %.139.lcssa, null
  %or.cond = select i1 %38, i1 %39, i1 false
  br i1 %or.cond, label %40, label %48

40:                                               ; preds = %._crit_edge
  %41 = tail call ptr @agedge(ptr noundef %1, ptr noundef nonnull %.1.lcssa, ptr noundef nonnull %.139.lcssa, ptr noundef null, i32 noundef 1) #15
  %42 = getelementptr i8, ptr %41, i64 16
  %.val = load ptr, ptr %42, align 8, !tbaa !3
  %43 = getelementptr inbounds nuw i8, ptr %.val, i64 228
  %44 = load i32, ptr %43, align 4, !tbaa !51
  %..i = tail call i32 @llvm.smax.i32(i32 %44, i32 0)
  store i32 %..i, ptr %43, align 4, !tbaa !51
  %45 = getelementptr inbounds nuw i8, ptr %.val, i64 212
  %46 = load i32, ptr %45, align 4, !tbaa !76
  %47 = add nsw i32 %46, 1000
  store i32 %47, ptr %45, align 4, !tbaa !76
  br label %48

48:                                               ; preds = %._crit_edge, %40, %6, %4
  %.038 = phi ptr [ %.139.lcssa, %40 ], [ %.139.lcssa, %._crit_edge ], [ %3, %6 ], [ %3, %4 ]
  %.036 = phi ptr [ %.1.lcssa, %40 ], [ %.1.lcssa, %._crit_edge ], [ %2, %6 ], [ %2, %4 ]
  %49 = tail call ptr @agfstsubg(ptr noundef %0) #15
  %.not4250 = icmp eq ptr %49, null
  br i1 %.not4250, label %._crit_edge54, label %.lr.ph53

.lr.ph53:                                         ; preds = %48, %.lr.ph53
  %.051 = phi ptr [ %50, %.lr.ph53 ], [ %49, %48 ]
  tail call fastcc void @compile_clusters(ptr noundef nonnull %.051, ptr noundef %1, ptr noundef %.036, ptr noundef %.038)
  %50 = tail call ptr @agnxtsubg(ptr noundef nonnull %.051) #15
  %.not42 = icmp eq ptr %50, null
  br i1 %.not42, label %._crit_edge54, label %.lr.ph53, !llvm.loop !144

._crit_edge54:                                    ; preds = %.lr.ph53, %48
  ret void
}